target datalayout = "e-m:e-p270:32:32-p271:32:32-p272:64:64-i64:64-i128:128-f80:128-n8:16:32:64-S128"
target triple = "x86_64-pc-linux-gnu"

; Function Attrs: mustprogress nounwind ssp uwtable
define internal void @_ZN6open3d4core6kernelL26CPULogicalXorElementKernelIddEEvPKvS4_Pv(ptr noundef %0, ptr noundef %1, ptr noundef %2) #3 {
  %4 = alloca ptr, align 8
  %5 = alloca ptr, align 8
  %6 = alloca ptr, align 8
  store ptr %0, ptr %4, align 8, !tbaa !17
  store ptr %1, ptr %5, align 8, !tbaa !17
  store ptr %2, ptr %6, align 8, !tbaa !17
  %7 = load ptr, ptr %4, align 8, !tbaa !17
  %8 = load double, ptr %7, align 8, !tbaa !253
  %9 = fcmp une double %8, 0.000000e+00
  %10 = zext i1 %9 to i32
  %11 = load ptr, ptr %5, align 8, !tbaa !17
  %12 = load double, ptr %11, align 8, !tbaa !253
  %13 = fcmp une double %12, 0.000000e+00
  %14 = zext i1 %13 to i32
  %15 = icmp ne i32 %10, %14
  %16 = uitofp i1 %15 to double
  %17 = load ptr, ptr %6, align 8, !tbaa !17
  store double %16, ptr %17, align 8, !tbaa !253
  ret void
}