; Function Attrs: mustprogress nofree norecurse nosync nounwind ssp willreturn memory(argmem: readwrite) uwtable
define internal void @_ZN6open3d4core6kernelL26CPULogicalXorElementKernelIddEEvPKvS4_Pv(ptr noundef readonly captures(none) %0, ptr noundef readonly captures(none) %1, ptr noundef writeonly captures(none) initializes((0, 8)) %2) #15 {
  %4 = load double, ptr %0, align 8, !tbaa !714
  %5 = fcmp une double %4, 0.000000e+00
  %6 = load double, ptr %1, align 8, !tbaa !714
  %7 = fcmp une double %6, 0.000000e+00
  %8 = xor i1 %5, %7
  %9 = uitofp i1 %8 to double
  store double %9, ptr %2, align 8, !tbaa !714
  ret void
}